target datalayout = "e-m:e-p270:32:32-p271:32:32-p272:64:64-i64:64-i128:128-f80:128-n8:16:32:64-S128"
target triple = "x86_64-pc-linux-gnu"

%struct.mbedtls_sha3_context = type { [25 x i64], i32, i16, i16 }

; Function Attrs: nounwind uwtable
define hidden i32 @mbedtls_sha3_starts(ptr noundef %0, i32 noundef %1) #0 {
  %3 = alloca i32, align 4
  %4 = alloca ptr, align 8
  %5 = alloca i32, align 4
  store ptr %0, ptr %4, align 8, !tbaa !3
  store i32 %1, ptr %5, align 4, !tbaa !9
  %6 = load i32, ptr %5, align 4, !tbaa !9
  switch i32 %6, label %27 [
    i32 1, label %7
    i32 2, label %12
    i32 3, label %17
    i32 4, label %22
  ]

7:                                                ; preds = %2
  %8 = load ptr, ptr %4, align 8, !tbaa !3
  %9 = getelementptr inbounds nuw %struct.mbedtls_sha3_context, ptr %8, i32 0, i32 2
  store i16 28, ptr %9, align 4, !tbaa !13
  %10 = load ptr, ptr %4, align 8, !tbaa !3
  %11 = getelementptr inbounds nuw %struct.mbedtls_sha3_context, ptr %10, i32 0, i32 3
  store i16 144, ptr %11, align 2, !tbaa !15
  br label %28

12:                                               ; preds = %2
  %13 = load ptr, ptr %4, align 8, !tbaa !3
  %14 = getelementptr inbounds nuw %struct.mbedtls_sha3_context, ptr %13, i32 0, i32 2
  store i16 32, ptr %14, align 4, !tbaa !13
  %15 = load ptr, ptr %4, align 8, !tbaa !3
  %16 = getelementptr inbounds nuw %struct.mbedtls_sha3_context, ptr %15, i32 0, i32 3
  store i16 136, ptr %16, align 2, !tbaa !15
  br label %28

17:                                               ; preds = %2
  %18 = load ptr, ptr %4, align 8, !tbaa !3
  %19 = getelementptr inbounds nuw %struct.mbedtls_sha3_context, ptr %18, i32 0, i32 2
  store i16 48, ptr %19, align 4, !tbaa !13
  %20 = load ptr, ptr %4, align 8, !tbaa !3
  %21 = getelementptr inbounds nuw %struct.mbedtls_sha3_context, ptr %20, i32 0, i32 3
  store i16 104, ptr %21, align 2, !tbaa !15
  br label %28

22:                                               ; preds = %2
  %23 = load ptr, ptr %4, align 8, !tbaa !3
  %24 = getelementptr inbounds nuw %struct.mbedtls_sha3_context, ptr %23, i32 0, i32 2
  store i16 64, ptr %24, align 4, !tbaa !13
  %25 = load ptr, ptr %4, align 8, !tbaa !3
  %26 = getelementptr inbounds nuw %struct.mbedtls_sha3_context, ptr %25, i32 0, i32 3
  store i16 72, ptr %26, align 2, !tbaa !15
  br label %28

27:                                               ; preds = %2
  store i32 -118, ptr %3, align 4
  br label %34

28:                                               ; preds = %22, %17, %12, %7
  %29 = load ptr, ptr %4, align 8, !tbaa !3
  %30 = getelementptr inbounds nuw %struct.mbedtls_sha3_context, ptr %29, i32 0, i32 0
  %31 = getelementptr inbounds [25 x i64], ptr %30, i64 0, i64 0
  call void @llvm.memset.p0.i64(ptr align 8 %31, i8 0, i64 200, i1 false)
  %32 = load ptr, ptr %4, align 8, !tbaa !3
  %33 = getelementptr inbounds nuw %struct.mbedtls_sha3_context, ptr %32, i32 0, i32 1
  store i32 0, ptr %33, align 8, !tbaa !16
  store i32 0, ptr %3, align 4
  br label %34

34:                                               ; preds = %28, %27
  %35 = load i32, ptr %3, align 4
  ret i32 %35
}