; Function Attrs: mustprogress nofree norecurse nosync nounwind willreturn memory(argmem: write) uwtable
define hidden range(i32 -118, 1) i32 @mbedtls_sha3_starts(ptr noundef writeonly captures(none) %0, i32 noundef %1) local_unnamed_addr #0 {
  %switch.tableidx = add i32 %1, -1
  %3 = icmp ult i32 %switch.tableidx, 4
  br i1 %3, label %switch.lookup, label %8

switch.lookup:                                    ; preds = %2
  %4 = shl nuw nsw i32 %switch.tableidx, 4
  %switch.shiftamt = zext nneg i32 %4 to i64
  %switch.downshift = lshr i64 18014604670009372, %switch.shiftamt
  %switch.masked = trunc i64 %switch.downshift to i16
  %5 = shl nuw nsw i32 %switch.tableidx, 4
  %switch.shiftamt15 = zext nneg i32 %5 to i64
  %switch.downshift16 = lshr i64 20266645008679056, %switch.shiftamt15
  %switch.masked17 = trunc i64 %switch.downshift16 to i16
  %6 = getelementptr inbounds nuw i8, ptr %0, i64 204
  store i16 %switch.masked, ptr %6, align 4, !tbaa !11
  %7 = getelementptr inbounds nuw i8, ptr %0, i64 206
  store i16 %switch.masked17, ptr %7, align 2, !tbaa !13
  tail call void @llvm.memset.p0.i64(ptr noundef nonnull align 8 dereferenceable(204) %0, i8 0, i64 204, i1 false)
  br label %8

8:                                                ; preds = %2, %switch.lookup
  %.0 = phi i32 [ 0, %switch.lookup ], [ -118, %2 ]
  ret i32 %.0
}